target datalayout = "e-m:e-p270:32:32-p271:32:32-p272:64:64-i64:64-i128:128-f80:128-n8:16:32:64-S128"
target triple = "x86_64-pc-linux-gnu"

%struct.RelationData = type { %struct.RelFileLocator, ptr, i32, i32, i8, i8, i8, i8, i8, i32, i32, i32, i32, ptr, ptr, i32, %struct.LockInfoData, ptr, ptr, ptr, ptr, ptr, i8, ptr, ptr, ptr, ptr, ptr, ptr, i32, ptr, i8, ptr, ptr, i32, i8, i32, ptr, i8, ptr, ptr, ptr, ptr, ptr, ptr, ptr, i32, ptr, ptr, ptr, ptr, ptr, ptr, ptr, ptr, ptr, ptr, ptr, ptr, ptr, ptr, ptr, ptr, ptr, ptr, ptr, i32, i8, ptr }
%struct.RelFileLocator = type { i32, i32, i32 }
%struct.LockInfoData = type { %struct.LockRelId }
%struct.LockRelId = type { i32, i32 }
%struct.FormData_pg_class = type { i32, %struct.nameData, i32, i32, i32, i32, i32, i32, i32, i32, float, i32, i32, i8, i8, i8, i8, i16, i16, i8, i8, i8, i8, i8, i8, i8, i8, i32, i32, i32 }
%struct.nameData = type { [64 x i8] }
%struct.TableAmRoutine = type { i32, ptr, ptr, ptr, ptr, ptr, ptr, ptr, ptr, ptr, ptr, ptr, ptr, ptr, ptr, ptr, ptr, ptr, ptr, ptr, ptr, ptr, ptr, ptr, ptr, ptr, ptr, ptr, ptr, ptr, ptr, ptr, ptr, ptr, ptr, ptr, ptr, ptr, ptr, ptr, ptr, ptr, ptr, ptr, ptr, ptr }

; Function Attrs: inlinehint nounwind uwtable
define internal void @table_relation_estimate_size(ptr noundef %0, ptr noundef %1, ptr noundef %2, ptr noundef %3, ptr noundef %4) #4 {
  %6 = alloca ptr, align 8
  %7 = alloca ptr, align 8
  %8 = alloca ptr, align 8
  %9 = alloca ptr, align 8
  %10 = alloca ptr, align 8
  store ptr %0, ptr %6, align 8
  store ptr %1, ptr %7, align 8
  store ptr %2, ptr %8, align 8
  store ptr %3, ptr %9, align 8
  store ptr %4, ptr %10, align 8
  %11 = load ptr, ptr %6, align 8
  %12 = getelementptr inbounds nuw %struct.RelationData, ptr %11, i32 0, i32 47
  %13 = load ptr, ptr %12, align 8
  %14 = getelementptr inbounds nuw %struct.TableAmRoutine, ptr %13, i32 0, i32 41
  %15 = load ptr, ptr %14, align 8
  %16 = load ptr, ptr %6, align 8
  %17 = load ptr, ptr %7, align 8
  %18 = load ptr, ptr %8, align 8
  %19 = load ptr, ptr %9, align 8
  %20 = load ptr, ptr %10, align 8
  call void %15(ptr noundef %16, ptr noundef %17, ptr noundef %18, ptr noundef %19, ptr noundef %20)
  ret void
}

; Function Attrs: nounwind uwtable
define dso_local void @estimate_rel_size(ptr noundef %0, ptr noundef %1, ptr noundef %2, ptr noundef %3, ptr noundef %4) #0 {
  %6 = alloca ptr, align 8
  %7 = alloca ptr, align 8
  %8 = alloca ptr, align 8
  %9 = alloca ptr, align 8
  %10 = alloca ptr, align 8
  %11 = alloca i32, align 4
  %12 = alloca i32, align 4
  %13 = alloca double, align 8
  %14 = alloca i32, align 4
  %15 = alloca double, align 8
  %16 = alloca i32, align 4
  %17 = alloca i32, align 4
  store ptr %0, ptr %6, align 8
  store ptr %1, ptr %7, align 8
  store ptr %2, ptr %8, align 8
  store ptr %3, ptr %9, align 8
  store ptr %4, ptr %10, align 8
  call void @llvm.lifetime.start.p0(i64 4, ptr %11) #10
  call void @llvm.lifetime.start.p0(i64 4, ptr %12) #10
  call void @llvm.lifetime.start.p0(i64 8, ptr %13) #10
  call void @llvm.lifetime.start.p0(i64 4, ptr %14) #10
  call void @llvm.lifetime.start.p0(i64 8, ptr %15) #10
  %18 = load ptr, ptr %6, align 8
  %19 = getelementptr inbounds nuw %struct.RelationData, ptr %18, i32 0, i32 13
  %20 = load ptr, ptr %19, align 8
  %21 = getelementptr inbounds nuw %struct.FormData_pg_class, ptr %20, i32 0, i32 16
  %22 = load i8, ptr %21, align 1
  %23 = sext i8 %22 to i32
  %24 = icmp eq i32 %23, 114
  br i1 %24, label %41, label %25

25:                                               ; preds = %5
  %26 = load ptr, ptr %6, align 8
  %27 = getelementptr inbounds nuw %struct.RelationData, ptr %26, i32 0, i32 13
  %28 = load ptr, ptr %27, align 8
  %29 = getelementptr inbounds nuw %struct.FormData_pg_class, ptr %28, i32 0, i32 16
  %30 = load i8, ptr %29, align 1
  %31 = sext i8 %30 to i32
  %32 = icmp eq i32 %31, 116
  br i1 %32, label %41, label %33

33:                                               ; preds = %25
  %34 = load ptr, ptr %6, align 8
  %35 = getelementptr inbounds nuw %struct.RelationData, ptr %34, i32 0, i32 13
  %36 = load ptr, ptr %35, align 8
  %37 = getelementptr inbounds nuw %struct.FormData_pg_class, ptr %36, i32 0, i32 16
  %38 = load i8, ptr %37, align 1
  %39 = sext i8 %38 to i32
  %40 = icmp eq i32 %39, 109
  br i1 %40, label %41, label %47

41:                                               ; preds = %33, %25, %5
  %42 = load ptr, ptr %6, align 8
  %43 = load ptr, ptr %7, align 8
  %44 = load ptr, ptr %8, align 8
  %45 = load ptr, ptr %9, align 8
  %46 = load ptr, ptr %10, align 8
  call void @table_relation_estimate_size(ptr noundef %42, ptr noundef %43, ptr noundef %44, ptr noundef %45, ptr noundef %46)
  br label %163

47:                                               ; preds = %33
  %48 = load ptr, ptr %6, align 8
  %49 = getelementptr inbounds nuw %struct.RelationData, ptr %48, i32 0, i32 13
  %50 = load ptr, ptr %49, align 8
  %51 = getelementptr inbounds nuw %struct.FormData_pg_class, ptr %50, i32 0, i32 16
  %52 = load i8, ptr %51, align 1
  %53 = sext i8 %52 to i32
  %54 = icmp eq i32 %53, 105
  br i1 %54, label %55, label %147

55:                                               ; preds = %47
  %56 = load ptr, ptr %6, align 8
  %57 = call i32 @RelationGetNumberOfBlocksInFork(ptr noundef %56, i32 noundef 0)
  store i32 %57, ptr %11, align 4
  %58 = load i32, ptr %11, align 4
  %59 = load ptr, ptr %8, align 8
  store i32 %58, ptr %59, align 4
  %60 = load i32, ptr %11, align 4
  %61 = icmp eq i32 %60, 0
  br i1 %61, label %62, label %65

62:                                               ; preds = %55
  %63 = load ptr, ptr %9, align 8
  store double 0.000000e+00, ptr %63, align 8
  %64 = load ptr, ptr %10, align 8
  store double 0.000000e+00, ptr %64, align 8
  store i32 1, ptr %16, align 4
  br label %164

65:                                               ; preds = %55
  %66 = load ptr, ptr %6, align 8
  %67 = getelementptr inbounds nuw %struct.RelationData, ptr %66, i32 0, i32 13
  %68 = load ptr, ptr %67, align 8
  %69 = getelementptr inbounds nuw %struct.FormData_pg_class, ptr %68, i32 0, i32 9
  %70 = load i32, ptr %69, align 4
  store i32 %70, ptr %12, align 4
  %71 = load ptr, ptr %6, align 8
  %72 = getelementptr inbounds nuw %struct.RelationData, ptr %71, i32 0, i32 13
  %73 = load ptr, ptr %72, align 8
  %74 = getelementptr inbounds nuw %struct.FormData_pg_class, ptr %73, i32 0, i32 10
  %75 = load float, ptr %74, align 4
  %76 = fpext float %75 to double
  store double %76, ptr %13, align 8
  %77 = load ptr, ptr %6, align 8
  %78 = getelementptr inbounds nuw %struct.RelationData, ptr %77, i32 0, i32 13
  %79 = load ptr, ptr %78, align 8
  %80 = getelementptr inbounds nuw %struct.FormData_pg_class, ptr %79, i32 0, i32 11
  %81 = load i32, ptr %80, align 4
  store i32 %81, ptr %14, align 4
  %82 = load i32, ptr %12, align 4
  %83 = icmp ugt i32 %82, 0
  br i1 %83, label %84, label %89

84:                                               ; preds = %65
  %85 = load i32, ptr %11, align 4
  %86 = add i32 %85, -1
  store i32 %86, ptr %11, align 4
  %87 = load i32, ptr %12, align 4
  %88 = add i32 %87, -1
  store i32 %88, ptr %12, align 4
  br label %89

89:                                               ; preds = %84, %65
  %90 = load double, ptr %13, align 8
  %91 = fcmp oge double %90, 0.000000e+00
  br i1 %91, label %92, label %100

92:                                               ; preds = %89
  %93 = load i32, ptr %12, align 4
  %94 = icmp ugt i32 %93, 0
  br i1 %94, label %95, label %100

95:                                               ; preds = %92
  %96 = load double, ptr %13, align 8
  %97 = load i32, ptr %12, align 4
  %98 = uitofp i32 %97 to double
  %99 = fdiv double %96, %98
  store double %99, ptr %15, align 8
  br label %116

100:                                              ; preds = %92, %89
  call void @llvm.lifetime.start.p0(i64 4, ptr %17) #10
  %101 = load ptr, ptr %6, align 8
  %102 = load ptr, ptr %7, align 8
  %103 = call i32 @get_rel_data_width(ptr noundef %101, ptr noundef %102)
  store i32 %103, ptr %17, align 4
  %104 = load i32, ptr %17, align 4
  %105 = sext i32 %104 to i64
  %106 = add i64 %105, 24
  %107 = trunc i64 %106 to i32
  store i32 %107, ptr %17, align 4
  %108 = load i32, ptr %17, align 4
  %109 = sext i32 %108 to i64
  %110 = add i64 %109, 4
  %111 = trunc i64 %110 to i32
  store i32 %111, ptr %17, align 4
  %112 = load i32, ptr %17, align 4
  %113 = sext i32 %112 to i64
  %114 = udiv i64 8168, %113
  %115 = uitofp i64 %114 to double
  store double %115, ptr %15, align 8
  call void @llvm.lifetime.end.p0(i64 4, ptr %17) #10
  br label %116

116:                                              ; preds = %100, %95
  %117 = load double, ptr %15, align 8
  %118 = load i32, ptr %11, align 4
  %119 = uitofp i32 %118 to double
  %120 = fmul double %117, %119
  %121 = call double @llvm.rint.f64(double %120)
  %122 = load ptr, ptr %9, align 8
  store double %121, ptr %122, align 8
  %123 = load i32, ptr %14, align 4
  %124 = icmp eq i32 %123, 0
  br i1 %124, label %128, label %125

125:                                              ; preds = %116
  %126 = load i32, ptr %11, align 4
  %127 = icmp ule i32 %126, 0
  br i1 %127, label %128, label %130

128:                                              ; preds = %125, %116
  %129 = load ptr, ptr %10, align 8
  store double 0.000000e+00, ptr %129, align 8
  br label %146

130:                                              ; preds = %125
  %131 = load i32, ptr %14, align 4
  %132 = uitofp i32 %131 to double
  %133 = load i32, ptr %11, align 4
  %134 = uitofp i32 %133 to double
  %135 = fcmp oge double %132, %134
  br i1 %135, label %136, label %138

136:                                              ; preds = %130
  %137 = load ptr, ptr %10, align 8
  store double 1.000000e+00, ptr %137, align 8
  br label %145

138:                                              ; preds = %130
  %139 = load i32, ptr %14, align 4
  %140 = uitofp i32 %139 to double
  %141 = load i32, ptr %11, align 4
  %142 = uitofp i32 %141 to double
  %143 = fdiv double %140, %142
  %144 = load ptr, ptr %10, align 8
  store double %143, ptr %144, align 8
  br label %145

145:                                              ; preds = %138, %136
  br label %146

146:                                              ; preds = %145, %128
  br label %162

147:                                              ; preds = %47
  %148 = load ptr, ptr %6, align 8
  %149 = getelementptr inbounds nuw %struct.RelationData, ptr %148, i32 0, i32 13
  %150 = load ptr, ptr %149, align 8
  %151 = getelementptr inbounds nuw %struct.FormData_pg_class, ptr %150, i32 0, i32 9
  %152 = load i32, ptr %151, align 4
  %153 = load ptr, ptr %8, align 8
  store i32 %152, ptr %153, align 4
  %154 = load ptr, ptr %6, align 8
  %155 = getelementptr inbounds nuw %struct.RelationData, ptr %154, i32 0, i32 13
  %156 = load ptr, ptr %155, align 8
  %157 = getelementptr inbounds nuw %struct.FormData_pg_class, ptr %156, i32 0, i32 10
  %158 = load float, ptr %157, align 4
  %159 = fpext float %158 to double
  %160 = load ptr, ptr %9, align 8
  store double %159, ptr %160, align 8
  %161 = load ptr, ptr %10, align 8
  store double 0.000000e+00, ptr %161, align 8
  br label %162

162:                                              ; preds = %147, %146
  br label %163

163:                                              ; preds = %162, %41
  store i32 0, ptr %16, align 4
  br label %164

164:                                              ; preds = %163, %62
  call void @llvm.lifetime.end.p0(i64 8, ptr %15) #10
  call void @llvm.lifetime.end.p0(i64 4, ptr %14) #10
  call void @llvm.lifetime.end.p0(i64 8, ptr %13) #10
  call void @llvm.lifetime.end.p0(i64 4, ptr %12) #10
  call void @llvm.lifetime.end.p0(i64 4, ptr %11) #10
  %165 = load i32, ptr %16, align 4
  switch i32 %165, label %167 [
    i32 0, label %166
    i32 1, label %166
  ]

166:                                              ; preds = %164, %164
  ret void

167:                                              ; preds = %164
  unreachable
}