; Function Attrs: nounwind uwtable
define dso_local void @estimate_rel_size(ptr noundef %0, ptr noundef %1, ptr noundef %2, ptr noundef %3, ptr noundef %4) local_unnamed_addr #0 {
  %6 = getelementptr inbounds nuw i8, ptr %0, i64 56
  %7 = load ptr, ptr %6, align 8
  %8 = getelementptr inbounds nuw i8, ptr %7, i64 115
  %9 = load i8, ptr %8, align 1
  switch i8 %9, label %53 [
    i8 114, label %10
    i8 116, label %10
    i8 109, label %10
    i8 105, label %15
  ]

10:                                               ; preds = %5, %5, %5
  %11 = getelementptr inbounds nuw i8, ptr %0, i64 320
  %12 = load ptr, ptr %11, align 8
  %13 = getelementptr inbounds nuw i8, ptr %12, i64 328
  %14 = load ptr, ptr %13, align 8
  tail call void %14(ptr noundef nonnull %0, ptr noundef %1, ptr noundef %2, ptr noundef %3, ptr noundef %4) #10
  br label %60

15:                                               ; preds = %5
  %16 = tail call i32 @RelationGetNumberOfBlocksInFork(ptr noundef nonnull %0, i32 noundef 0) #10
  store i32 %16, ptr %2, align 4
  %17 = icmp eq i32 %16, 0
  br i1 %17, label %18, label %19

18:                                               ; preds = %15
  store double 0.000000e+00, ptr %3, align 8
  store double 0.000000e+00, ptr %4, align 8
  br label %60

19:                                               ; preds = %15
  %20 = load ptr, ptr %6, align 8
  %21 = getelementptr inbounds nuw i8, ptr %20, i64 96
  %22 = load i32, ptr %21, align 4
  %23 = getelementptr inbounds nuw i8, ptr %20, i64 100
  %24 = load float, ptr %23, align 4
  %25 = getelementptr inbounds nuw i8, ptr %20, i64 104
  %26 = load i32, ptr %25, align 4
  %.not = icmp ne i32 %22, 0
  %27 = sext i1 %.not to i32
  %.0 = add i32 %16, %27
  %28 = fcmp oge float %24, 0.000000e+00
  %29 = icmp ugt i32 %22, 1
  %or.cond = and i1 %29, %28
  br i1 %or.cond, label %30, label %34

30:                                               ; preds = %19
  %.050 = add i32 %22, -1
  %31 = fpext float %24 to double
  %32 = uitofp i32 %.050 to double
  %33 = fdiv double %31, %32
  br label %40

34:                                               ; preds = %19
  %35 = tail call i32 @get_rel_data_width(ptr noundef nonnull %0, ptr noundef %1)
  %36 = add i32 %35, 28
  %37 = sext i32 %36 to i64
  %38 = udiv i64 8168, %37
  %39 = uitofp nneg i64 %38 to double
  br label %40

40:                                               ; preds = %34, %30
  %.049 = phi double [ %33, %30 ], [ %39, %34 ]
  %41 = uitofp i32 %.0 to double
  %42 = fmul double %.049, %41
  %43 = tail call double @llvm.rint.f64(double %42)
  store double %43, ptr %3, align 8
  %44 = icmp eq i32 %26, 0
  %45 = icmp eq i32 %.0, 0
  %or.cond3 = or i1 %44, %45
  br i1 %or.cond3, label %46, label %47

46:                                               ; preds = %40
  store double 0.000000e+00, ptr %4, align 8
  br label %60

47:                                               ; preds = %40
  %48 = uitofp i32 %26 to double
  %49 = fcmp ult double %48, %41
  br i1 %49, label %51, label %50

50:                                               ; preds = %47
  store double 1.000000e+00, ptr %4, align 8
  br label %60

51:                                               ; preds = %47
  %52 = fdiv double %48, %41
  store double %52, ptr %4, align 8
  br label %60

53:                                               ; preds = %5
  %54 = getelementptr inbounds nuw i8, ptr %7, i64 96
  %55 = load i32, ptr %54, align 4
  store i32 %55, ptr %2, align 4
  %56 = load ptr, ptr %6, align 8
  %57 = getelementptr inbounds nuw i8, ptr %56, i64 100
  %58 = load float, ptr %57, align 4
  %59 = fpext float %58 to double
  store double %59, ptr %3, align 8
  store double 0.000000e+00, ptr %4, align 8
  br label %60

60:                                               ; preds = %10, %46, %51, %50, %53, %18
  ret void
}